; Function Attrs: mustprogress nofree norecurse nounwind willreturn uwtable
define void @_ZNK5arrow16TableBatchReader6schemaEv(ptr dead_on_unwind noalias writable writeonly sret(%"class.std::shared_ptr") align 8 captures(none) initializes((0, 16)) %0, ptr noundef nonnull readonly align 8 captures(none) dereferenceable(120) %1) unnamed_addr #10 align 2 personality ptr @__gxx_personality_v0 {
  %3 = getelementptr inbounds nuw i8, ptr %1, i64 24
  %4 = load ptr, ptr %3, align 8, !tbaa !517
  %5 = getelementptr inbounds nuw i8, ptr %4, i64 8
  %6 = load ptr, ptr %5, align 8, !tbaa !34
  store ptr %6, ptr %0, align 8, !tbaa !34
  %7 = getelementptr inbounds nuw i8, ptr %0, i64 8
  %8 = getelementptr inbounds nuw i8, ptr %4, i64 16
  %9 = load ptr, ptr %8, align 8, !tbaa !46
  store ptr %9, ptr %7, align 8, !tbaa !46
  %.not.i.i.i = icmp eq ptr %9, null
  br i1 %.not.i.i.i, label %_ZNSt10shared_ptrIN5arrow6SchemaEEC2ERKS2_.exit, label %10

10:                                               ; preds = %2
  %11 = getelementptr inbounds nuw i8, ptr %9, i64 8
  %12 = load i8, ptr @__libc_single_threaded, align 1, !tbaa !47
  %.not.i.i.i.i = icmp eq i8 %12, 0
  br i1 %.not.i.i.i.i, label %16, label %13

13:                                               ; preds = %10
  %14 = load i32, ptr %11, align 4, !tbaa !48
  %15 = add nsw i32 %14, 1
  store i32 %15, ptr %11, align 4, !tbaa !48
  br label %_ZNSt10shared_ptrIN5arrow6SchemaEEC2ERKS2_.exit

16:                                               ; preds = %10
  %17 = atomicrmw volatile add ptr %11, i32 1 acq_rel, align 4
  br label %_ZNSt10shared_ptrIN5arrow6SchemaEEC2ERKS2_.exit

_ZNSt10shared_ptrIN5arrow6SchemaEEC2ERKS2_.exit:  ; preds = %2, %13, %16
  ret void
}